target datalayout = "e-m:e-p270:32:32-p271:32:32-p272:64:64-i64:64-i128:128-f80:128-n8:16:32:64-S128"
target triple = "x86_64-pc-linux-gnu"

; Function Attrs: nounwind uwtable
define internal i32 @read_quant_table(ptr noundef %0, ptr noundef %1, i32 noundef %2) #0 {
  %4 = alloca i32, align 4
  %5 = alloca ptr, align 8
  %6 = alloca ptr, align 8
  %7 = alloca i32, align 4
  %8 = alloca i32, align 4
  %9 = alloca i32, align 4
  %10 = alloca [32 x i8], align 16
  %11 = alloca i32, align 4
  %12 = alloca i32, align 4
  store ptr %0, ptr %5, align 8, !tbaa !4
  store ptr %1, ptr %6, align 8, !tbaa !9
  store i32 %2, ptr %7, align 4, !tbaa !11
  call void @llvm.lifetime.start.p0(i64 4, ptr %8) #7
  call void @llvm.lifetime.start.p0(i64 4, ptr %9) #7
  store i32 0, ptr %9, align 4, !tbaa !11
  call void @llvm.lifetime.start.p0(i64 32, ptr %10) #7
  %13 = getelementptr inbounds [32 x i8], ptr %10, i64 0, i64 0
  call void @llvm.memset.p0.i64(ptr align 16 %13, i8 -128, i64 32, i1 false)
  store i32 0, ptr %8, align 4, !tbaa !11
  br label %14

14:                                               ; preds = %50, %3
  %15 = load i32, ptr %9, align 4, !tbaa !11
  %16 = icmp slt i32 %15, 128
  br i1 %16, label %17, label %53

17:                                               ; preds = %14
  call void @llvm.lifetime.start.p0(i64 4, ptr %11) #7
  %18 = load ptr, ptr %5, align 8, !tbaa !4
  %19 = getelementptr inbounds [32 x i8], ptr %10, i64 0, i64 0
  %20 = call i32 @ff_ffv1_get_symbol(ptr noundef %18, ptr noundef %19, i32 noundef 0)
  %21 = add i32 %20, 1
  store i32 %21, ptr %11, align 4, !tbaa !11
  %22 = load i32, ptr %11, align 4, !tbaa !11
  %23 = load i32, ptr %9, align 4, !tbaa !11
  %24 = sub nsw i32 128, %23
  %25 = icmp ugt i32 %22, %24
  br i1 %25, label %29, label %26

26:                                               ; preds = %17
  %27 = load i32, ptr %11, align 4, !tbaa !11
  %28 = icmp ne i32 %27, 0
  br i1 %28, label %30, label %29

29:                                               ; preds = %26, %17
  store i32 -1094995529, ptr %4, align 4
  store i32 1, ptr %12, align 4
  br label %47

30:                                               ; preds = %26
  br label %31

31:                                               ; preds = %35, %30
  %32 = load i32, ptr %11, align 4, !tbaa !11
  %33 = add i32 %32, -1
  store i32 %33, ptr %11, align 4, !tbaa !11
  %34 = icmp ne i32 %32, 0
  br i1 %34, label %35, label %46

35:                                               ; preds = %31
  %36 = load i32, ptr %7, align 4, !tbaa !11
  %37 = load i32, ptr %8, align 4, !tbaa !11
  %38 = mul nsw i32 %36, %37
  %39 = trunc i32 %38 to i16
  %40 = load ptr, ptr %6, align 8, !tbaa !9
  %41 = load i32, ptr %9, align 4, !tbaa !11
  %42 = sext i32 %41 to i64
  %43 = getelementptr inbounds i16, ptr %40, i64 %42
  store i16 %39, ptr %43, align 2, !tbaa !15
  %44 = load i32, ptr %9, align 4, !tbaa !11
  %45 = add nsw i32 %44, 1
  store i32 %45, ptr %9, align 4, !tbaa !11
  br label %31, !llvm.loop !17

46:                                               ; preds = %31
  store i32 0, ptr %12, align 4
  br label %47

47:                                               ; preds = %46, %29
  call void @llvm.lifetime.end.p0(i64 4, ptr %11) #7
  %48 = load i32, ptr %12, align 4
  switch i32 %48, label %86 [
    i32 0, label %49
  ]

49:                                               ; preds = %47
  br label %50

50:                                               ; preds = %49
  %51 = load i32, ptr %8, align 4, !tbaa !11
  %52 = add nsw i32 %51, 1
  store i32 %52, ptr %8, align 4, !tbaa !11
  br label %14, !llvm.loop !18

53:                                               ; preds = %14
  store i32 1, ptr %9, align 4, !tbaa !11
  br label %54

54:                                               ; preds = %71, %53
  %55 = load i32, ptr %9, align 4, !tbaa !11
  %56 = icmp slt i32 %55, 128
  br i1 %56, label %57, label %74

57:                                               ; preds = %54
  %58 = load ptr, ptr %6, align 8, !tbaa !9
  %59 = load i32, ptr %9, align 4, !tbaa !11
  %60 = sext i32 %59 to i64
  %61 = getelementptr inbounds i16, ptr %58, i64 %60
  %62 = load i16, ptr %61, align 2, !tbaa !15
  %63 = sext i16 %62 to i32
  %64 = sub nsw i32 0, %63
  %65 = trunc i32 %64 to i16
  %66 = load ptr, ptr %6, align 8, !tbaa !9
  %67 = load i32, ptr %9, align 4, !tbaa !11
  %68 = sub nsw i32 256, %67
  %69 = sext i32 %68 to i64
  %70 = getelementptr inbounds i16, ptr %66, i64 %69
  store i16 %65, ptr %70, align 2, !tbaa !15
  br label %71

71:                                               ; preds = %57
  %72 = load i32, ptr %9, align 4, !tbaa !11
  %73 = add nsw i32 %72, 1
  store i32 %73, ptr %9, align 4, !tbaa !11
  br label %54, !llvm.loop !19

74:                                               ; preds = %54
  %75 = load ptr, ptr %6, align 8, !tbaa !9
  %76 = getelementptr inbounds i16, ptr %75, i64 127
  %77 = load i16, ptr %76, align 2, !tbaa !15
  %78 = sext i16 %77 to i32
  %79 = sub nsw i32 0, %78
  %80 = trunc i32 %79 to i16
  %81 = load ptr, ptr %6, align 8, !tbaa !9
  %82 = getelementptr inbounds i16, ptr %81, i64 128
  store i16 %80, ptr %82, align 2, !tbaa !15
  %83 = load i32, ptr %8, align 4, !tbaa !11
  %84 = mul nsw i32 2, %83
  %85 = sub nsw i32 %84, 1
  store i32 %85, ptr %4, align 4
  store i32 1, ptr %12, align 4
  br label %86

86:                                               ; preds = %74, %47
  call void @llvm.lifetime.end.p0(i64 32, ptr %10) #7
  call void @llvm.lifetime.end.p0(i64 4, ptr %9) #7
  call void @llvm.lifetime.end.p0(i64 4, ptr %8) #7
  %87 = load i32, ptr %4, align 4
  ret i32 %87
}

; Function Attrs: nounwind uwtable
define i32 @ff_ffv1_read_quant_tables(ptr noundef %0, ptr noundef %1) #0 {
  %3 = alloca i32, align 4
  %4 = alloca ptr, align 8
  %5 = alloca ptr, align 8
  %6 = alloca i32, align 4
  %7 = alloca i32, align 4
  %8 = alloca i32, align 4
  %9 = alloca i32, align 4
  store ptr %0, ptr %4, align 8, !tbaa !4
  store ptr %1, ptr %5, align 8, !tbaa !9
  call void @llvm.lifetime.start.p0(i64 4, ptr %6) #7
  call void @llvm.lifetime.start.p0(i64 4, ptr %7) #7
  store i32 1, ptr %7, align 4, !tbaa !11
  store i32 0, ptr %6, align 4, !tbaa !11
  br label %10

10:                                               ; preds = %37, %2
  %11 = load i32, ptr %6, align 4, !tbaa !11
  %12 = icmp slt i32 %11, 5
  br i1 %12, label %13, label %40

13:                                               ; preds = %10
  call void @llvm.lifetime.start.p0(i64 4, ptr %8) #7
  %14 = load ptr, ptr %4, align 8, !tbaa !4
  %15 = load ptr, ptr %5, align 8, !tbaa !9
  %16 = load i32, ptr %6, align 4, !tbaa !11
  %17 = sext i32 %16 to i64
  %18 = getelementptr inbounds [256 x i16], ptr %15, i64 %17
  %19 = getelementptr inbounds [256 x i16], ptr %18, i64 0, i64 0
  %20 = load i32, ptr %7, align 4, !tbaa !11
  %21 = call i32 @read_quant_table(ptr noundef %14, ptr noundef %19, i32 noundef %20)
  store i32 %21, ptr %8, align 4, !tbaa !11
  %22 = load i32, ptr %8, align 4, !tbaa !11
  %23 = icmp slt i32 %22, 0
  br i1 %23, label %24, label %26

24:                                               ; preds = %13
  %25 = load i32, ptr %8, align 4, !tbaa !11
  store i32 %25, ptr %3, align 4
  store i32 1, ptr %9, align 4
  br label %34

26:                                               ; preds = %13
  %27 = load i32, ptr %8, align 4, !tbaa !11
  %28 = load i32, ptr %7, align 4, !tbaa !11
  %29 = mul nsw i32 %28, %27
  store i32 %29, ptr %7, align 4, !tbaa !11
  %30 = load i32, ptr %7, align 4, !tbaa !11
  %31 = icmp ugt i32 %30, 32768
  br i1 %31, label %32, label %33

32:                                               ; preds = %26
  store i32 -1094995529, ptr %3, align 4
  store i32 1, ptr %9, align 4
  br label %34

33:                                               ; preds = %26
  store i32 0, ptr %9, align 4
  br label %34

34:                                               ; preds = %33, %32, %24
  call void @llvm.lifetime.end.p0(i64 4, ptr %8) #7
  %35 = load i32, ptr %9, align 4
  switch i32 %35, label %44 [
    i32 0, label %36
  ]

36:                                               ; preds = %34
  br label %37

37:                                               ; preds = %36
  %38 = load i32, ptr %6, align 4, !tbaa !11
  %39 = add nsw i32 %38, 1
  store i32 %39, ptr %6, align 4, !tbaa !11
  br label %10, !llvm.loop !13

40:                                               ; preds = %10
  %41 = load i32, ptr %7, align 4, !tbaa !11
  %42 = add nsw i32 %41, 1
  %43 = sdiv i32 %42, 2
  store i32 %43, ptr %3, align 4
  store i32 1, ptr %9, align 4
  br label %44

44:                                               ; preds = %40, %34
  call void @llvm.lifetime.end.p0(i64 4, ptr %7) #7
  call void @llvm.lifetime.end.p0(i64 4, ptr %6) #7
  %45 = load i32, ptr %3, align 4
  ret i32 %45
}