; Function Attrs: nounwind uwtable
define i32 @ff_ffv1_read_quant_tables(ptr noundef %0, ptr noundef captures(none) %1) local_unnamed_addr #0 {
  %3 = alloca [32 x i8], align 16
  br label %5

4:                                                ; preds = %read_quant_table.exit
  %indvars.iv.next = add nuw nsw i64 %indvars.iv, 1
  %exitcond.not = icmp eq i64 %indvars.iv.next, 5
  br i1 %exitcond.not, label %34, label %5, !llvm.loop !4

5:                                                ; preds = %2, %4
  %indvars.iv = phi i64 [ 0, %2 ], [ %indvars.iv.next, %4 ]
  %.01324 = phi i32 [ undef, %2 ], [ %..013, %4 ]
  %.01423 = phi i32 [ 1, %2 ], [ %32, %4 ]
  %6 = getelementptr inbounds nuw [256 x i16], ptr %1, i64 %indvars.iv
  call void @llvm.lifetime.start.p0(i64 32, ptr nonnull %3) #7
  call void @llvm.memset.p0.i64(ptr noundef nonnull align 16 dereferenceable(32) %3, i8 -128, i64 32, i1 false)
  br label %7

7:                                                ; preds = %17, %5
  %.02436.i = phi i32 [ 0, %5 ], [ %18, %17 ]
  %.02535.i = phi i32 [ 0, %5 ], [ %19, %17 ]
  %8 = call i32 @ff_ffv1_get_symbol(ptr noundef %0, ptr noundef nonnull %3, i32 noundef 0) #7
  %9 = sub nsw i32 128, %.02436.i
  %or.cond.i = icmp ult i32 %8, %9
  br i1 %or.cond.i, label %.preheader31.i, label %read_quant_table.exit.thread

read_quant_table.exit.thread:                     ; preds = %7
  call void @llvm.lifetime.end.p0(i64 32, ptr nonnull %3) #7
  br label %.loopexit

.preheader31.i:                                   ; preds = %7
  %10 = add nuw i32 %8, 1
  %11 = mul nuw nsw i32 %.02535.i, %.01423
  %12 = trunc i32 %11 to i16
  %13 = sext i32 %.02436.i to i64
  br label %14

14:                                               ; preds = %14, %.preheader31.i
  %indvars.iv.i = phi i64 [ %13, %.preheader31.i ], [ %indvars.iv.next.i, %14 ]
  %.02334.i = phi i32 [ %10, %.preheader31.i ], [ %15, %14 ]
  %15 = add i32 %.02334.i, -1
  %16 = getelementptr inbounds i16, ptr %6, i64 %indvars.iv.i
  store i16 %12, ptr %16, align 2, !tbaa !6
  %indvars.iv.next.i = add nsw i64 %indvars.iv.i, 1
  %.not.i = icmp eq i32 %15, 0
  br i1 %.not.i, label %17, label %14, !llvm.loop !10

17:                                               ; preds = %14
  %18 = trunc nsw i64 %indvars.iv.next.i to i32
  %19 = add nuw nsw i32 %.02535.i, 1
  %20 = icmp slt i64 %indvars.iv.i, 127
  br i1 %20, label %7, label %.preheader.i, !llvm.loop !11

.preheader.i:                                     ; preds = %17, %.preheader.i
  %indvars.iv40.i = phi i64 [ %indvars.iv.next41.i, %.preheader.i ], [ 1, %17 ]
  %21 = getelementptr inbounds nuw i16, ptr %6, i64 %indvars.iv40.i
  %22 = load i16, ptr %21, align 2, !tbaa !6
  %23 = sub i16 0, %22
  %24 = sub nuw nsw i64 256, %indvars.iv40.i
  %25 = getelementptr inbounds nuw i16, ptr %6, i64 %24
  store i16 %23, ptr %25, align 2, !tbaa !6
  %indvars.iv.next41.i = add nuw nsw i64 %indvars.iv40.i, 1
  %exitcond.not.i = icmp eq i64 %indvars.iv.next41.i, 128
  br i1 %exitcond.not.i, label %read_quant_table.exit, label %.preheader.i, !llvm.loop !12

read_quant_table.exit:                            ; preds = %.preheader.i
  %26 = getelementptr inbounds nuw i8, ptr %6, i64 254
  %27 = load i16, ptr %26, align 2, !tbaa !6
  %28 = sub i16 0, %27
  %29 = getelementptr inbounds nuw i8, ptr %6, i64 256
  store i16 %28, ptr %29, align 2, !tbaa !6
  %30 = shl nuw nsw i32 %19, 1
  %31 = add nsw i32 %30, -1
  call void @llvm.lifetime.end.p0(i64 32, ptr nonnull %3) #7
  %32 = mul nsw i32 %31, %.01423
  %33 = icmp ult i32 %32, 32769
  %..013 = select i1 %33, i32 %.01324, i32 -1094995529
  br i1 %33, label %4, label %.loopexit

34:                                               ; preds = %4
  %35 = add nuw nsw i32 %32, 1
  %36 = lshr i32 %35, 1
  br label %.loopexit

.loopexit:                                        ; preds = %read_quant_table.exit, %read_quant_table.exit.thread, %34
  %.2 = phi i32 [ %36, %34 ], [ -1094995529, %read_quant_table.exit.thread ], [ %..013, %read_quant_table.exit ]
  ret i32 %.2
}